(dp0
I1
cpygame
__rect_constructor
p1
(I126
I123
I128
I25
tp2
Rp3
sI2
g1
(I466
I140
I63
I60
tp4
Rp5
sI3
g1
(I285
I237
I35
I56
tp6
Rp7
sI4
g1
(I120
I251
I32
I21
tp8
Rp9
sI5
g1
(I428
I305
I22
I22
tp10
Rp11
sI6
g1
(I76
I330
I38
I53
tp12
Rp13
sI7
g1
(I349
I338
I28
I22
tp14
Rp15
sI8
g1
(I174
I401
I33
I85
tp16
Rp17
sI9
g1
(I376
I426
I35
I34
tp18
Rp19
sI10
g1
(I83
I605
I57
I40
tp20
Rp21
s.