(dp0
I1
cpygame
__rect_constructor
p1
(I416
I103
I73
I85
tp2
Rp3
sI2
g1
(I97
I181
I52
I67
tp4
Rp5
sI3
g1
(I34
I192
I41
I43
tp6
Rp7
sI4
g1
(I452
I264
I39
I35
tp8
Rp9
sI5
g1
(I519
I367
I37
I32
tp10
Rp11
s.