(dp0
I1
cpygame
__rect_constructor
p1
(I139
I67
I32
I38
tp2
Rp3
sI2
g1
(I46
I139
I63
I45
tp4
Rp5
sI3
g1
(I309
I232
I25
I34
tp6
Rp7
sI4
g1
(I31
I406
I40
I31
tp8
Rp9
sI5
g1
(I312
I437
I52
I31
tp10
Rp11
s.