(dp0
I1
cpygame
__rect_constructor
p1
(I214
I127
I35
I36
tp2
Rp3
sI2
g1
(I119
I200
I68
I53
tp4
Rp5
sI3
g1
(I383
I298
I21
I26
tp6
Rp7
sI4
g1
(I112
I468
I29
I27
tp8
Rp9
sI5
g1
(I377
I496
I51
I32
tp10
Rp11
s.