(dp0
I1
cpygame
__rect_constructor
p1
(I468
I304
I29
I29
tp2
Rp3
sI2
g1
(I79
I409
I29
I31
tp4
Rp5
sI3
g1
(I426
I419
I27
I37
tp6
Rp7
sI4
g1
(I208
I463
I25
I25
tp8
Rp9
sI5
g1
(I88
I488
I43
I30
tp10
Rp11
s.