(dp0
I1
cpygame
__rect_constructor
p1
(I469
I87
I28
I83
tp2
Rp3
sI2
g1
(I243
I201
I53
I37
tp4
Rp5
sI3
g1
(I180
I208
I26
I29
tp6
Rp7
sI4
g1
(I101
I243
I30
I32
tp8
Rp9
sI5
g1
(I478
I262
I49
I72
tp10
Rp11
sI6
g1
(I339
I333
I62
I104
tp12
Rp13
sI7
g1
(I478
I410
I42
I53
tp14
Rp15
sI8
g1
(I144
I442
I20
I21
tp16
Rp17
sI9
g1
(I174
I489
I76
I127
tp18
Rp19
sI10
g1
(I337
I598
I30
I40
tp20
Rp21
s.