(dp0
I1
cpygame
__rect_constructor
p1
(I186
I92
I77
I91
tp2
Rp3
sI2
g1
(I466
I211
I46
I48
tp4
Rp5
sI3
g1
(I233
I262
I106
I54
tp6
Rp7
sI4
g1
(I433
I302
I43
I71
tp8
Rp9
sI5
g1
(I152
I305
I50
I62
tp10
Rp11
sI6
g1
(I254
I365
I45
I49
tp12
Rp13
sI7
g1
(I159
I402
I69
I41
tp14
Rp15
sI8
g1
(I394
I492
I47
I83
tp16
Rp17
sI9
g1
(I69
I496
I84
I130
tp18
Rp19
sI10
g1
(I348
I603
I183
I58
tp20
Rp21
s.