(dp0
I1
cpygame
__rect_constructor
p1
(I75
I92
I56
I56
tp2
Rp3
sI2
g1
(I322
I229
I65
I65
tp4
Rp5
sI3
g1
(I492
I269
I26
I28
tp6
Rp7
sI4
g1
(I177
I289
I53
I31
tp8
Rp9
sI5
g1
(I230
I318
I52
I35
tp10
Rp11
sI6
g1
(I257
I403
I33
I37
tp12
Rp13
sI7
g1
(I148
I413
I45
I35
tp14
Rp15
sI8
g1
(I469
I467
I61
I32
tp16
Rp17
sI9
g1
(I76
I518
I64
I44
tp18
Rp19
sI10
g1
(I287
I570
I54
I57
tp20
Rp21
s.